target datalayout = "e-m:e-p270:32:32-p271:32:32-p272:64:64-i64:64-i128:128-f80:128-n8:16:32:64-S128"
target triple = "x86_64-pc-linux-gnu"

%struct.WarpedMotionParams = type { [8 x i32], i16, i16, i16, i16, i8, i8 }
%struct.AV1Decoder = type { %struct.DecoderCodingBlock, %struct.AV1Common, %struct.AVxWorker, %struct.AV1LfSyncData, %struct.AV1LrSyncData, %struct.AV1LrStruct, ptr, i32, ptr, [16 x i8], %struct.ThreadData, ptr, i32, [64 x [64 x %struct.TileBufferDec]], %struct.AV1DecTileMTData, i32, [4 x ptr], i64, i32, i32, i32, i32, i32, i32, i32, i32, i32, i32, i32, i32, i32, i32, i32, i32, i32, i64, %struct.DataBuffer, i32, i32, i32, i32, i32, i32, %struct.EXTERNAL_REFERENCES, %struct.yv12_buffer_config, ptr, i32, i32, ptr, ptr, %struct.AV1DecRowMTInfo, ptr, i32, i32, i32, i32, [8 x i32], i32, i32, i32, %struct.aom_s_frame_info, [28 x i8] }
%struct.DecoderCodingBlock = type { %struct.macroblockd, i32, [2 x ptr], [3 x ptr], [3 x i16], [3 x ptr], [3 x i16], [29 x i8], [29 x i8] }
%struct.macroblockd = type { i32, i32, i32, i8, [3 x %struct.macroblockd_plane], %struct.TileInfo, ptr, i8, i8, i8, i8, ptr, ptr, ptr, ptr, ptr, i32, i32, i32, i32, i32, [2 x ptr], ptr, [3 x ptr], [3 x [32 x i8]], ptr, [32 x i8], ptr, ptr, [32 x i8], [3 x %struct.WienerInfo], [3 x %struct.SgrprojInfo], i8, i8, [29 x [8 x %struct.candidate_mv]], [29 x [8 x i16]], i8, i8, [8 x i8], ptr, i32, [8 x i32], [8 x i32], i32, i32, ptr, ptr, i8, [4 x i8], [4 x i8], [7 x i8], [32768 x i8], %struct.cfl_ctx, [2 x i16], ptr, [2 x ptr] }
%struct.macroblockd_plane = type { i8, i32, i32, %struct.buf_2d, [2 x %struct.buf_2d], ptr, ptr, [8 x [2 x i16]], ptr, i8, i8, [8 x [19 x ptr]], [8 x [19 x ptr]] }
%struct.buf_2d = type { ptr, ptr, i32, i32, i32 }
%struct.TileInfo = type { i32, i32, i32, i32, i32, i32 }
%struct.WienerInfo = type { [8 x i16], [8 x i16] }
%struct.SgrprojInfo = type { i32, [2 x i32] }
%struct.candidate_mv = type { %union.int_mv, %union.int_mv }
%union.int_mv = type { i32 }
%struct.cfl_ctx = type { [1024 x i16], [1024 x i16], [2 x i32], i32, [2 x [32 x i16]], i32, i32, i32, i32, i32, i32 }
%struct.AV1Common = type { %struct.CurrentFrame, %struct.aom_internal_error_info, i32, i32, i32, i32, i32, i32, i8, i8, [33 x i32], i32, ptr, ptr, [8 x i32], %struct.scale_factors, [8 x %struct.scale_factors], [8 x ptr], i32, i32, i32, %struct.FeatureFlags, %struct.CommonModeInfoParams, %struct.CommonQuantParams, %struct.segmentation, ptr, [8 x i8], %struct.loop_filter_info_n, %struct.loopfilter, [3 x %struct.RestorationInfo], ptr, ptr, %struct.yv12_buffer_config, %struct.CdefInfo, %struct.aom_film_grain_t, %struct.DeltaQInfo, [8 x %struct.WarpedMotionParams], %struct.SequenceHeader, ptr, ptr, %struct.CommonTileParams, ptr, %struct.CommonContexts, i32, [8 x i32], ptr, i32, [8 x i32], [8 x i8], i32, i32, i32, i32 }
%struct.CurrentFrame = type { i8, i8, i32, i32, i32, %struct.SkipModeInfo, i32, i32 }
%struct.SkipModeInfo = type { i32, i32, i32, i32 }
%struct.aom_internal_error_info = type { i32, i32, [200 x i8], i32, [1 x %struct.__jmp_buf_tag] }
%struct.__jmp_buf_tag = type { [8 x i64], i32, %struct.__sigset_t }
%struct.__sigset_t = type { [16 x i64] }
%struct.scale_factors = type { i32, i32, i32, i32, ptr, ptr }
%struct.FeatureFlags = type { i8, i8, i8, i8, i8, i8, i8, i8, i8, i8, i8, i8, i8, i8, i32, i32, i8 }
%struct.CommonModeInfoParams = type { i32, i32, i32, i32, i32, ptr, i32, i32, i8, ptr, i32, i32, ptr, ptr, ptr, ptr }
%struct.CommonQuantParams = type { i32, i32, i32, i32, i32, i32, [8 x [2 x i16]], [8 x [2 x i16]], [8 x [2 x i16]], [16 x [3 x [19 x ptr]]], [16 x [3 x [19 x ptr]]], [8 x [19 x ptr]], [8 x [19 x ptr]], [8 x [19 x ptr]], i8, i32, i32, i32 }
%struct.segmentation = type { i8, i8, i8, i8, [8 x [8 x i16]], [8 x i32], i32, i8 }
%struct.loop_filter_info_n = type { [64 x %struct.loop_filter_thresh], [3 x [8 x [2 x [8 x [2 x i8]]]]] }
%struct.loop_filter_thresh = type { [16 x i8], [16 x i8], [16 x i8] }
%struct.loopfilter = type { [2 x i32], i32, i32, i32, i8, i8, [8 x i8], [2 x i8], i32 }
%struct.RestorationInfo = type { i32, i32, i32, i32, i32, ptr, %struct.RestorationStripeBoundaries, i32 }
%struct.RestorationStripeBoundaries = type { ptr, ptr, i32, i32 }
%struct.CdefInfo = type { i32, i32, [16 x i32], [16 x i32], i32 }
%struct.aom_film_grain_t = type { i32, i32, [14 x [2 x i32]], i32, [10 x [2 x i32]], i32, [10 x [2 x i32]], i32, i32, i32, [24 x i32], [25 x i32], [25 x i32], i32, i32, i32, i32, i32, i32, i32, i32, i32, i32, i32, i32, i16 }
%struct.DeltaQInfo = type { i32, i32, i32, i32, i32 }
%struct.SequenceHeader = type { i32, i32, i32, i32, i8, i32, i32, i8, i32, i32, %struct.OrderHintInfo, i8, i8, i8, i8, i8, i8, i8, i8, i8, i8, i8, i8, i8, i8, i32, i8, i8, i32, i32, i32, i32, i32, i32, i32, i8, i8, i32, [32 x i32], i32, %struct.aom_timing, i8, %struct.aom_dec_model_info, i8, [32 x i8], [32 x i8], [33 x %struct.aom_dec_model_op_parameters] }
%struct.OrderHintInfo = type { i32, i32, i32, i32 }
%struct.aom_timing = type { i32, i32, i32, i32 }
%struct.aom_dec_model_info = type { i32, i32, i32, i32 }
%struct.aom_dec_model_op_parameters = type { i32, i64, i64, i32, i32, i32, i32, i32 }
%struct.CommonTileParams = type { i32, i32, i32, i32, i32, i32, i32, i32, i32, i32, i32, i32, i32, i32, i32, [65 x i32], [65 x i32], i32, i32 }
%struct.CommonContexts = type { ptr, [3 x ptr], ptr, i32, i32, i32 }
%struct.AVxWorker = type { ptr, i32, ptr, ptr, ptr, ptr, i32 }
%struct.AV1LfSyncData = type { [3 x ptr], [3 x ptr], [3 x ptr], i32, i32, ptr, i32, ptr, ptr, i32, i32 }
%struct.AV1LrSyncData = type { [3 x ptr], [3 x ptr], [3 x ptr], i32, i32, i32, i32, ptr, ptr, ptr, i32, i32 }
%struct.AV1LrStruct = type { ptr, [3 x %struct.FilterFrameCtxt], ptr, ptr }
%struct.FilterFrameCtxt = type { ptr, i32, i32, i32, i32, i32, ptr, ptr, i32, i32, %struct.AV1PixelRect }
%struct.AV1PixelRect = type { i32, i32, i32, i32 }
%struct.ThreadData = type { %struct.DecoderCodingBlock, %struct.CB_BUFFER, ptr, [2 x ptr], i32, i32, ptr, [2 x ptr], ptr, ptr, ptr, ptr, ptr, ptr, [24 x i8] }
%struct.CB_BUFFER = type { [3 x [16384 x i32]], [3 x [1024 x %struct.eob_info]], [2 x [16384 x i8]] }
%struct.eob_info = type { i16, i16 }
%struct.TileBufferDec = type { ptr, i64 }
%struct.AV1DecTileMTData = type { ptr, ptr, i32, i32, i32, i32 }
%struct.DataBuffer = type { ptr, i64 }
%struct.EXTERNAL_REFERENCES = type { [128 x %struct.yv12_buffer_config], i32 }
%struct.yv12_buffer_config = type { %union.anon, %union.anon.0, %union.anon.2, %union.anon.4, %union.anon.6, %union.anon.8, i32, [3 x ptr], ptr, i32, ptr, i64, i32, i64, i32, i32, i32, i32, i32, i32, i8, i32, i32, i32, i32, i32, i32, ptr }
%union.anon = type { %struct.anon }
%struct.anon = type { i32, i32 }
%union.anon.0 = type { %struct.anon.1 }
%struct.anon.1 = type { i32, i32 }
%union.anon.2 = type { %struct.anon.3 }
%struct.anon.3 = type { i32, i32 }
%union.anon.4 = type { %struct.anon.5 }
%struct.anon.5 = type { i32, i32 }
%union.anon.6 = type { %struct.anon.7 }
%struct.anon.7 = type { i32, i32 }
%union.anon.8 = type { %struct.anon.9 }
%struct.anon.9 = type { ptr, ptr, ptr }
%struct.AV1DecRowMTInfo = type { i32, i32, i32, i32, i32, i32, i32, i32, i32, i32 }
%struct.aom_s_frame_info = type { i32, i32 }
%struct.AV1DecRowMTSyncData = type { ptr, ptr, i32, ptr, i32, i32, i32, i32, i32, i32 }
%struct.frame_contexts = type { [5 x [13 x [3 x i16]]], [5 x [2 x [9 x [3 x i16]]]], [2 x [3 x [3 x i16]]], [2 x [2 x [6 x i16]]], [2 x [2 x [7 x i16]]], [2 x [2 x [8 x i16]]], [2 x [2 x [9 x i16]]], [2 x [2 x [10 x i16]]], [2 x [2 x [11 x i16]]], [2 x [2 x [12 x i16]]], [5 x [2 x [4 x [4 x i16]]]], [5 x [2 x [42 x [5 x i16]]]], [5 x [2 x [21 x [5 x i16]]]], [6 x [3 x i16]], [2 x [3 x i16]], [6 x [3 x i16]], [3 x [3 x i16]], [8 x [9 x i16]], [22 x [3 x i16]], [22 x [17 x i16]], [4 x [3 x i16]], [22 x [3 x i16]], [4 x [5 x i16]], [22 x [4 x i16]], [22 x [3 x i16]], [7 x [8 x i16]], [7 x [8 x i16]], [7 x [5 x [9 x i16]]], [7 x [5 x [9 x i16]]], [7 x [3 x [3 x i16]]], [2 x [3 x i16]], [5 x [3 x i16]], [3 x [6 x [3 x i16]]], [5 x [3 x i16]], [3 x [3 x [3 x i16]]], [3 x [3 x [3 x i16]]], [3 x [2 x [3 x i16]]], [21 x [3 x i16]], [6 x [3 x i16]], [6 x [3 x i16]], [3 x [3 x i16]], [3 x [3 x i16]], [4 x [3 x i16]], %struct.nmv_context, %struct.nmv_context, [3 x i16], %struct.segmentation_probs, [22 x [3 x i16]], [6 x i16], [4 x i16], [3 x i16], [3 x i16], [4 x [14 x i16]], [2 x [13 x [15 x i16]]], [20 x [11 x i16]], [16 x [4 x i16]], [5 x [5 x [14 x i16]]], [8 x [8 x i16]], [4 x [3 x [4 x i16]]], [5 x i16], [4 x [5 x i16]], [5 x i16], [3 x [4 x [13 x [17 x i16]]]], [4 x [4 x [17 x i16]]], [9 x i16], [6 x [17 x i16]], i32 }
%struct.nmv_context = type { [5 x i16], [2 x %struct.nmv_component] }
%struct.nmv_component = type { [12 x i16], [2 x [5 x i16]], [5 x i16], [3 x i16], [3 x i16], [3 x i16], [3 x i16], [10 x [3 x i16]] }
%struct.segmentation_probs = type { [9 x i16], [3 x [3 x i16]], [3 x [9 x i16]] }
%struct.TileDataDec = type { %struct.TileInfo, %struct.aom_reader, [8 x i8], %struct.frame_contexts, %struct.AV1DecRowMTSyncData, [8 x i8] }
%struct.aom_reader = type { ptr, ptr, %struct.od_ec_dec, i8 }
%struct.od_ec_dec = type { ptr, i32, ptr, ptr, i32, i16, i16 }
%struct.DecWorkerData = type { ptr, ptr, %struct.aom_internal_error_info }
%struct.TileJobsDec = type { ptr, ptr }

; Function Attrs: nounwind uwtable
define internal ptr @get_dec_job_info(ptr noundef %0) #0 {
  %2 = alloca ptr, align 8
  %3 = alloca ptr, align 8
  store ptr %0, ptr %2, align 8
  store ptr null, ptr %3, align 8
  %4 = load ptr, ptr %2, align 8
  %5 = getelementptr inbounds nuw %struct.AV1DecTileMTData, ptr %4, i32 0, i32 0
  %6 = load ptr, ptr %5, align 8
  %7 = call i32 @pthread_mutex_lock(ptr noundef %6) #7
  %8 = load ptr, ptr %2, align 8
  %9 = getelementptr inbounds nuw %struct.AV1DecTileMTData, ptr %8, i32 0, i32 3
  %10 = load i32, ptr %9, align 4
  %11 = load ptr, ptr %2, align 8
  %12 = getelementptr inbounds nuw %struct.AV1DecTileMTData, ptr %11, i32 0, i32 2
  %13 = load i32, ptr %12, align 8
  %14 = icmp slt i32 %10, %13
  br i1 %14, label %15, label %28

15:                                               ; preds = %1
  %16 = load ptr, ptr %2, align 8
  %17 = getelementptr inbounds nuw %struct.AV1DecTileMTData, ptr %16, i32 0, i32 1
  %18 = load ptr, ptr %17, align 8
  %19 = load ptr, ptr %2, align 8
  %20 = getelementptr inbounds nuw %struct.AV1DecTileMTData, ptr %19, i32 0, i32 3
  %21 = load i32, ptr %20, align 4
  %22 = sext i32 %21 to i64
  %23 = getelementptr inbounds %struct.TileJobsDec, ptr %18, i64 %22
  store ptr %23, ptr %3, align 8
  %24 = load ptr, ptr %2, align 8
  %25 = getelementptr inbounds nuw %struct.AV1DecTileMTData, ptr %24, i32 0, i32 3
  %26 = load i32, ptr %25, align 4
  %27 = add nsw i32 %26, 1
  store i32 %27, ptr %25, align 4
  br label %28

28:                                               ; preds = %15, %1
  %29 = load ptr, ptr %2, align 8
  %30 = getelementptr inbounds nuw %struct.AV1DecTileMTData, ptr %29, i32 0, i32 0
  %31 = load ptr, ptr %30, align 8
  %32 = call i32 @pthread_mutex_unlock(ptr noundef %31) #7
  %33 = load ptr, ptr %3, align 8
  ret ptr %33
}

; Function Attrs: nounwind uwtable
define internal void @set_decode_func_pointers(ptr noundef %0, i32 noundef %1) #0 {
  %3 = alloca ptr, align 8
  %4 = alloca i32, align 4
  store ptr %0, ptr %3, align 8
  store i32 %1, ptr %4, align 4
  %5 = load ptr, ptr %3, align 8
  %6 = getelementptr inbounds nuw %struct.ThreadData, ptr %5, i32 0, i32 8
  store ptr @decode_block_void, ptr %6, align 8
  %7 = load ptr, ptr %3, align 8
  %8 = getelementptr inbounds nuw %struct.ThreadData, ptr %7, i32 0, i32 9
  store ptr @decode_block_void, ptr %8, align 32
  %9 = load ptr, ptr %3, align 8
  %10 = getelementptr inbounds nuw %struct.ThreadData, ptr %9, i32 0, i32 10
  store ptr @decode_block_void, ptr %10, align 8
  %11 = load ptr, ptr %3, align 8
  %12 = getelementptr inbounds nuw %struct.ThreadData, ptr %11, i32 0, i32 11
  store ptr @decode_block_void, ptr %12, align 16
  %13 = load ptr, ptr %3, align 8
  %14 = getelementptr inbounds nuw %struct.ThreadData, ptr %13, i32 0, i32 12
  store ptr @predict_inter_block_void, ptr %14, align 8
  %15 = load ptr, ptr %3, align 8
  %16 = getelementptr inbounds nuw %struct.ThreadData, ptr %15, i32 0, i32 13
  store ptr @cfl_store_inter_block_void, ptr %16, align 32
  %17 = load i32, ptr %4, align 4
  %18 = and i32 %17, 1
  %19 = icmp ne i32 %18, 0
  br i1 %19, label %20, label %25

20:                                               ; preds = %2
  %21 = load ptr, ptr %3, align 8
  %22 = getelementptr inbounds nuw %struct.ThreadData, ptr %21, i32 0, i32 8
  store ptr @read_coeffs_tx_intra_block, ptr %22, align 8
  %23 = load ptr, ptr %3, align 8
  %24 = getelementptr inbounds nuw %struct.ThreadData, ptr %23, i32 0, i32 10
  store ptr @av1_read_coeffs_txb_facade, ptr %24, align 8
  br label %25

25:                                               ; preds = %20, %2
  %26 = load i32, ptr %4, align 4
  %27 = and i32 %26, 2
  %28 = icmp ne i32 %27, 0
  br i1 %28, label %29, label %38

29:                                               ; preds = %25
  %30 = load ptr, ptr %3, align 8
  %31 = getelementptr inbounds nuw %struct.ThreadData, ptr %30, i32 0, i32 9
  store ptr @predict_and_reconstruct_intra_block, ptr %31, align 32
  %32 = load ptr, ptr %3, align 8
  %33 = getelementptr inbounds nuw %struct.ThreadData, ptr %32, i32 0, i32 11
  store ptr @inverse_transform_inter_block, ptr %33, align 16
  %34 = load ptr, ptr %3, align 8
  %35 = getelementptr inbounds nuw %struct.ThreadData, ptr %34, i32 0, i32 12
  store ptr @predict_inter_block, ptr %35, align 8
  %36 = load ptr, ptr %3, align 8
  %37 = getelementptr inbounds nuw %struct.ThreadData, ptr %36, i32 0, i32 13
  store ptr @cfl_store_inter_block, ptr %37, align 32
  br label %38

38:                                               ; preds = %29, %25
  ret void
}

; Function Attrs: nounwind uwtable
define internal i32 @tile_worker_hook(ptr noundef %0, ptr noundef %1) #0 {
  %3 = alloca i32, align 4
  %4 = alloca ptr, align 8
  %5 = alloca ptr, align 8
  %6 = alloca ptr, align 8
  %7 = alloca ptr, align 8
  %8 = alloca ptr, align 8
  %9 = alloca ptr, align 8
  %10 = alloca i8, align 1
  %11 = alloca ptr, align 8
  %12 = alloca ptr, align 8
  %13 = alloca ptr, align 8
  %14 = alloca i32, align 4
  %15 = alloca i32, align 4
  store ptr %0, ptr %4, align 8
  store ptr %1, ptr %5, align 8
  %16 = load ptr, ptr %4, align 8
  store ptr %16, ptr %6, align 8
  %17 = load ptr, ptr %5, align 8
  store ptr %17, ptr %7, align 8
  %18 = load ptr, ptr %7, align 8
  %19 = getelementptr inbounds nuw %struct.AV1Decoder, ptr %18, i32 0, i32 1
  store ptr %19, ptr %8, align 8
  %20 = load ptr, ptr %6, align 8
  %21 = getelementptr inbounds nuw %struct.DecWorkerData, ptr %20, i32 0, i32 0
  %22 = load ptr, ptr %21, align 8
  store ptr %22, ptr %9, align 8
  %23 = load ptr, ptr %6, align 8
  %24 = getelementptr inbounds nuw %struct.DecWorkerData, ptr %23, i32 0, i32 2
  %25 = getelementptr inbounds nuw %struct.aom_internal_error_info, ptr %24, i32 0, i32 4
  %26 = getelementptr inbounds [1 x %struct.__jmp_buf_tag], ptr %25, i64 0, i64 0
  %27 = call i32 @_setjmp(ptr noundef %26) #8
  %28 = icmp ne i32 %27, 0
  br i1 %28, label %29, label %38

29:                                               ; preds = %2
  %30 = load ptr, ptr %6, align 8
  %31 = getelementptr inbounds nuw %struct.DecWorkerData, ptr %30, i32 0, i32 2
  %32 = getelementptr inbounds nuw %struct.aom_internal_error_info, ptr %31, i32 0, i32 3
  store i32 0, ptr %32, align 8
  %33 = load ptr, ptr %6, align 8
  %34 = getelementptr inbounds nuw %struct.DecWorkerData, ptr %33, i32 0, i32 0
  %35 = load ptr, ptr %34, align 8
  %36 = getelementptr inbounds nuw %struct.ThreadData, ptr %35, i32 0, i32 0
  %37 = getelementptr inbounds nuw %struct.DecoderCodingBlock, ptr %36, i32 0, i32 1
  store i32 1, ptr %37, align 16
  store i32 0, ptr %3, align 4
  br label %114

38:                                               ; preds = %2
  %39 = load ptr, ptr %6, align 8
  %40 = getelementptr inbounds nuw %struct.DecWorkerData, ptr %39, i32 0, i32 2
  %41 = getelementptr inbounds nuw %struct.aom_internal_error_info, ptr %40, i32 0, i32 3
  store i32 1, ptr %41, align 8
  %42 = load ptr, ptr %8, align 8
  %43 = getelementptr inbounds nuw %struct.AV1Common, ptr %42, i32 0, i32 40
  %44 = getelementptr inbounds nuw %struct.CommonTileParams, ptr %43, i32 0, i32 17
  %45 = load i32, ptr %44, align 4
  %46 = icmp ne i32 %45, 0
  %47 = select i1 %46, i32 0, i32 1
  %48 = trunc i32 %47 to i8
  store i8 %48, ptr %10, align 1
  %49 = load i8, ptr %10, align 1
  %50 = zext i8 %49 to i32
  %51 = icmp ne i32 %50, 0
  br i1 %51, label %52, label %59

52:                                               ; preds = %38
  %53 = load ptr, ptr %8, align 8
  %54 = getelementptr inbounds nuw %struct.AV1Common, ptr %53, i32 0, i32 21
  %55 = getelementptr inbounds nuw %struct.FeatureFlags, ptr %54, i32 0, i32 0
  %56 = load i8, ptr %55, align 4
  %57 = trunc i8 %56 to i1
  %58 = xor i1 %57, true
  br label %59

59:                                               ; preds = %52, %38
  %60 = phi i1 [ false, %38 ], [ %58, %52 ]
  %61 = zext i1 %60 to i32
  %62 = trunc i32 %61 to i8
  store i8 %62, ptr %10, align 1
  %63 = load ptr, ptr %9, align 8
  call void @set_decode_func_pointers(ptr noundef %63, i32 noundef 3)
  br label %64

64:                                               ; preds = %102, %59
  %65 = load ptr, ptr %9, align 8
  %66 = getelementptr inbounds nuw %struct.ThreadData, ptr %65, i32 0, i32 0
  %67 = getelementptr inbounds nuw %struct.DecoderCodingBlock, ptr %66, i32 0, i32 1
  %68 = load i32, ptr %67, align 16
  %69 = icmp ne i32 %68, 0
  %70 = xor i1 %69, true
  br i1 %70, label %71, label %103

71:                                               ; preds = %64
  %72 = load ptr, ptr %7, align 8
  %73 = getelementptr inbounds nuw %struct.AV1Decoder, ptr %72, i32 0, i32 14
  %74 = call ptr @get_dec_job_info(ptr noundef %73)
  store ptr %74, ptr %11, align 8
  %75 = load ptr, ptr %11, align 8
  %76 = icmp ne ptr %75, null
  br i1 %76, label %77, label %101

77:                                               ; preds = %71
  %78 = load ptr, ptr %11, align 8
  %79 = getelementptr inbounds nuw %struct.TileJobsDec, ptr %78, i32 0, i32 0
  %80 = load ptr, ptr %79, align 8
  store ptr %80, ptr %12, align 8
  %81 = load ptr, ptr %11, align 8
  %82 = getelementptr inbounds nuw %struct.TileJobsDec, ptr %81, i32 0, i32 1
  %83 = load ptr, ptr %82, align 8
  store ptr %83, ptr %13, align 8
  %84 = load ptr, ptr %7, align 8
  %85 = load ptr, ptr %6, align 8
  %86 = load ptr, ptr %12, align 8
  %87 = load ptr, ptr %13, align 8
  %88 = load i8, ptr %10, align 1
  call void @tile_worker_hook_init(ptr noundef %84, ptr noundef %85, ptr noundef %86, ptr noundef %87, i8 noundef zeroext %88)
  %89 = load ptr, ptr %13, align 8
  %90 = getelementptr inbounds nuw %struct.TileDataDec, ptr %89, i32 0, i32 0
  %91 = getelementptr inbounds nuw %struct.TileInfo, ptr %90, i32 0, i32 4
  %92 = load i32, ptr %91, align 16
  store i32 %92, ptr %14, align 4
  %93 = load ptr, ptr %13, align 8
  %94 = getelementptr inbounds nuw %struct.TileDataDec, ptr %93, i32 0, i32 0
  %95 = getelementptr inbounds nuw %struct.TileInfo, ptr %94, i32 0, i32 5
  %96 = load i32, ptr %95, align 4
  store i32 %96, ptr %15, align 4
  %97 = load ptr, ptr %7, align 8
  %98 = load ptr, ptr %9, align 8
  %99 = load i32, ptr %14, align 4
  %100 = load i32, ptr %15, align 4
  call void @decode_tile(ptr noundef %97, ptr noundef %98, i32 noundef %99, i32 noundef %100)
  br label %102

101:                                              ; preds = %71
  br label %103

102:                                              ; preds = %77
  br label %64, !llvm.loop !144

103:                                              ; preds = %101, %64
  %104 = load ptr, ptr %6, align 8
  %105 = getelementptr inbounds nuw %struct.DecWorkerData, ptr %104, i32 0, i32 2
  %106 = getelementptr inbounds nuw %struct.aom_internal_error_info, ptr %105, i32 0, i32 3
  store i32 0, ptr %106, align 8
  %107 = load ptr, ptr %9, align 8
  %108 = getelementptr inbounds nuw %struct.ThreadData, ptr %107, i32 0, i32 0
  %109 = getelementptr inbounds nuw %struct.DecoderCodingBlock, ptr %108, i32 0, i32 1
  %110 = load i32, ptr %109, align 16
  %111 = icmp ne i32 %110, 0
  %112 = xor i1 %111, true
  %113 = zext i1 %112 to i32
  store i32 %113, ptr %3, align 4
  br label %114

114:                                              ; preds = %103, %29
  %115 = load i32, ptr %3, align 4
  ret i32 %115
}