; Function Attrs: nounwind uwtable
define internal range(i32 0, 2) i32 @tile_worker_hook(ptr noundef %0, ptr noundef %1) #0 {
  %3 = load ptr, ptr %0, align 8
  %4 = getelementptr inbounds nuw i8, ptr %0, i64 232
  %5 = call i32 @_setjmp(ptr noundef nonnull %4) #17
  %.not = icmp eq i32 %5, 0
  %6 = getelementptr inbounds nuw i8, ptr %0, i64 224
  br i1 %.not, label %10, label %7

7:                                                ; preds = %2
  store i32 0, ptr %6, align 8
  %8 = load ptr, ptr %0, align 8
  %9 = getelementptr inbounds nuw i8, ptr %8, i64 47824
  store i32 1, ptr %9, align 16
  br label %57

10:                                               ; preds = %2
  store i32 1, ptr %6, align 8
  %11 = getelementptr inbounds nuw i8, ptr %1, i64 75684
  %12 = load i32, ptr %11, align 4
  %.not31 = icmp eq i32 %12, 0
  br i1 %.not31, label %13, label %18

13:                                               ; preds = %10
  %14 = getelementptr inbounds nuw i8, ptr %1, i64 49004
  %15 = load i8, ptr %14, align 4
  %16 = and i8 %15, 1
  %17 = xor i8 %16, 1
  br label %18

18:                                               ; preds = %13, %10
  %19 = phi i8 [ 0, %10 ], [ %17, %13 ]
  %20 = getelementptr inbounds nuw i8, ptr %3, i64 289688
  %21 = getelementptr inbounds nuw i8, ptr %3, i64 289696
  %22 = getelementptr inbounds nuw i8, ptr %3, i64 289704
  %23 = getelementptr inbounds nuw i8, ptr %3, i64 289712
  %24 = getelementptr inbounds nuw i8, ptr %3, i64 289720
  %25 = getelementptr inbounds nuw i8, ptr %3, i64 289728
  store ptr @read_coeffs_tx_intra_block, ptr %20, align 8
  store ptr @av1_read_coeffs_txb_facade, ptr %22, align 8
  store ptr @predict_and_reconstruct_intra_block, ptr %21, align 32
  store ptr @inverse_transform_inter_block, ptr %23, align 16
  store ptr @predict_inter_block, ptr %24, align 8
  store ptr @cfl_store_inter_block, ptr %25, align 32
  %26 = getelementptr inbounds nuw i8, ptr %3, i64 47824
  %27 = load i32, ptr %26, align 16
  %.not3239 = icmp eq i32 %27, 0
  br i1 %.not3239, label %.lr.ph, label %.loopexit

.lr.ph:                                           ; preds = %18
  %28 = getelementptr inbounds nuw i8, ptr %1, i64 431760
  %29 = getelementptr inbounds nuw i8, ptr %1, i64 431780
  %30 = getelementptr inbounds nuw i8, ptr %1, i64 431776
  %31 = getelementptr inbounds nuw i8, ptr %1, i64 431768
  br label %32

32:                                               ; preds = %.lr.ph, %44
  %33 = load ptr, ptr %28, align 8
  %34 = call i32 @pthread_mutex_lock(ptr noundef %33) #16
  %35 = load i32, ptr %29, align 4
  %36 = load i32, ptr %30, align 8
  %37 = icmp slt i32 %35, %36
  br i1 %37, label %get_dec_job_info.exit, label %get_dec_job_info.exit.thread

get_dec_job_info.exit.thread:                     ; preds = %32
  %38 = load ptr, ptr %28, align 8
  %39 = call i32 @pthread_mutex_unlock(ptr noundef %38) #16
  br label %.loopexit

get_dec_job_info.exit:                            ; preds = %32
  %40 = load ptr, ptr %31, align 8
  %41 = add nsw i32 %35, 1
  store i32 %41, ptr %29, align 4
  %42 = load ptr, ptr %28, align 8
  %43 = call i32 @pthread_mutex_unlock(ptr noundef %42) #16
  %.not33 = icmp eq ptr %40, null
  br i1 %.not33, label %.loopexit, label %44

44:                                               ; preds = %get_dec_job_info.exit
  %45 = sext i32 %35 to i64
  %46 = getelementptr inbounds %struct.TileJobsDec, ptr %40, i64 %45
  %47 = load ptr, ptr %46, align 8
  %48 = getelementptr inbounds nuw i8, ptr %46, i64 8
  %49 = load ptr, ptr %48, align 8
  call fastcc void @tile_worker_hook_init(ptr noundef nonnull %1, ptr noundef nonnull %0, ptr noundef %47, ptr noundef %49, i8 noundef zeroext %19)
  %50 = getelementptr inbounds nuw i8, ptr %49, i64 16
  %51 = load i32, ptr %50, align 16
  %52 = getelementptr inbounds nuw i8, ptr %49, i64 20
  %53 = load i32, ptr %52, align 4
  call fastcc void @decode_tile(ptr noundef nonnull %1, ptr noundef nonnull %3, i32 noundef %51, i32 noundef %53)
  %54 = load i32, ptr %26, align 16
  %.not32 = icmp eq i32 %54, 0
  br i1 %.not32, label %32, label %.loopexit, !llvm.loop !136

.loopexit:                                        ; preds = %44, %get_dec_job_info.exit, %18, %get_dec_job_info.exit.thread
  store i32 0, ptr %6, align 8
  %55 = load i32, ptr %26, align 16
  %.not34 = icmp eq i32 %55, 0
  %56 = zext i1 %.not34 to i32
  br label %57

57:                                               ; preds = %.loopexit, %7
  %.0 = phi i32 [ 0, %7 ], [ %56, %.loopexit ]
  ret i32 %.0
}